; Function Attrs: mustprogress uwtable
define internal void @_ZNK8facebook5velox12_GLOBAL__N_116RowVectorPrinter16summarizeNonNullB5cxx11Ei(ptr noalias sret(%"class.std::__cxx11::basic_string") align 8 %agg.result, ptr nocapture noundef nonnull readonly align 8 dereferenceable(152) %this, i32 %0) unnamed_addr #2 align 2 {
entry:
  %baseVector_.i = getelementptr inbounds i8, ptr %this, i64 56
  %1 = load ptr, ptr %baseVector_.i, align 8
  %type_.i = getelementptr inbounds i8, ptr %1, i64 8
  %2 = load ptr, ptr %type_.i, align 8
  %vtable = load ptr, ptr %2, align 8
  %vfn = getelementptr inbounds i8, ptr %vtable, i64 80
  %3 = load ptr, ptr %vfn, align 8
  tail call void %3(ptr sret(%"class.std::__cxx11::basic_string") align 8 %agg.result, ptr noundef nonnull align 8 dereferenceable(17) %2)
  ret void
}